target datalayout = "e-m:e-p270:32:32-p271:32:32-p272:64:64-i64:64-i128:128-f80:128-n8:16:32:64-S128"
target triple = "x86_64-pc-linux-gnu"

%struct.CRYPTO_REF_COUNT = type { i32 }
%struct.bio_st = type { ptr, ptr, ptr, ptr, ptr, i32, i32, i32, i32, i32, ptr, ptr, ptr, %struct.CRYPTO_REF_COUNT, i64, i64, %struct.crypto_ex_data_st }
%struct.crypto_ex_data_st = type { ptr, ptr }

; Function Attrs: nounwind uwtable
define void @BIO_set_flags(ptr noundef %0, i32 noundef %1) #0 {
  %3 = alloca ptr, align 8
  %4 = alloca i32, align 4
  store ptr %0, ptr %3, align 8, !tbaa !10
  store i32 %1, ptr %4, align 4, !tbaa !26
  %5 = load i32, ptr %4, align 4, !tbaa !26
  %6 = load ptr, ptr %3, align 8, !tbaa !10
  %7 = getelementptr inbounds nuw %struct.bio_st, ptr %6, i32 0, i32 7
  %8 = load i32, ptr %7, align 8, !tbaa !38
  %9 = or i32 %8, %5
  store i32 %9, ptr %7, align 8, !tbaa !38
  ret void
}

; Function Attrs: nounwind uwtable
define i32 @BIO_test_flags(ptr noundef %0, i32 noundef %1) #0 {
  %3 = alloca ptr, align 8
  %4 = alloca i32, align 4
  store ptr %0, ptr %3, align 8, !tbaa !10
  store i32 %1, ptr %4, align 4, !tbaa !26
  %5 = load ptr, ptr %3, align 8, !tbaa !10
  %6 = getelementptr inbounds nuw %struct.bio_st, ptr %5, i32 0, i32 7
  %7 = load i32, ptr %6, align 8, !tbaa !38
  %8 = load i32, ptr %4, align 4, !tbaa !26
  %9 = and i32 %7, %8
  ret i32 %9
}

; Function Attrs: nounwind uwtable
define void @BIO_copy_next_retry(ptr noundef %0) #0 {
  %2 = alloca ptr, align 8
  store ptr %0, ptr %2, align 8, !tbaa !10
  %3 = load ptr, ptr %2, align 8, !tbaa !10
  %4 = load ptr, ptr %2, align 8, !tbaa !10
  %5 = getelementptr inbounds nuw %struct.bio_st, ptr %4, i32 0, i32 11
  %6 = load ptr, ptr %5, align 8, !tbaa !66
  %7 = call i32 @BIO_test_flags(ptr noundef %6, i32 noundef 15)
  call void @BIO_set_flags(ptr noundef %3, i32 noundef %7)
  %8 = load ptr, ptr %2, align 8, !tbaa !10
  %9 = getelementptr inbounds nuw %struct.bio_st, ptr %8, i32 0, i32 11
  %10 = load ptr, ptr %9, align 8, !tbaa !66
  %11 = getelementptr inbounds nuw %struct.bio_st, ptr %10, i32 0, i32 8
  %12 = load i32, ptr %11, align 4, !tbaa !69
  %13 = load ptr, ptr %2, align 8, !tbaa !10
  %14 = getelementptr inbounds nuw %struct.bio_st, ptr %13, i32 0, i32 8
  store i32 %12, ptr %14, align 4, !tbaa !69
  ret void
}