; Function Attrs: mustprogress nofree norecurse nosync nounwind willreturn memory(read, argmem: readwrite, inaccessiblemem: none) uwtable
define void @BIO_copy_next_retry(ptr noundef captures(none) initializes((52, 56)) %0) local_unnamed_addr #9 {
  %2 = getelementptr inbounds nuw i8, ptr %0, i64 72
  %3 = load ptr, ptr %2, align 8, !tbaa !56
  %4 = getelementptr inbounds nuw i8, ptr %3, i64 48
  %5 = load i32, ptr %4, align 8, !tbaa !27
  %6 = and i32 %5, 15
  %7 = getelementptr inbounds nuw i8, ptr %0, i64 48
  %8 = load i32, ptr %7, align 8, !tbaa !27
  %9 = or i32 %8, %6
  store i32 %9, ptr %7, align 8, !tbaa !27
  %10 = getelementptr inbounds nuw i8, ptr %3, i64 52
  %11 = load i32, ptr %10, align 4, !tbaa !59
  %12 = getelementptr inbounds nuw i8, ptr %0, i64 52
  store i32 %11, ptr %12, align 4, !tbaa !59
  ret void
}